target datalayout = "e-m:e-p270:32:32-p271:32:32-p272:64:64-i64:64-i128:128-f80:128-n8:16:32:64-S128"
target triple = "x86_64-pc-linux-gnu"

; Function Attrs: nounwind uwtable
define internal void @CollectColorRedTransforms_SSE41(ptr noundef %0, i32 noundef %1, i32 noundef %2, i32 noundef %3, i32 noundef %4, ptr noundef %5) #1 {
  %7 = alloca <2 x i64>, align 16
  %8 = alloca <2 x i64>, align 16
  %9 = alloca <2 x i64>, align 16
  %10 = alloca <2 x i64>, align 16
  %11 = alloca <2 x i64>, align 16
  %12 = alloca <2 x i64>, align 16
  %13 = alloca <2 x i64>, align 16
  %14 = alloca <2 x i64>, align 16
  %15 = alloca <2 x i64>, align 16
  %16 = alloca <2 x i64>, align 16
  %17 = alloca <2 x i64>, align 16
  %18 = alloca <2 x i64>, align 16
  %19 = alloca i32, align 4
  %20 = alloca i32, align 4
  %21 = alloca i32, align 4
  %22 = alloca i32, align 4
  %23 = alloca <4 x i32>, align 16
  %24 = alloca i32, align 4
  %25 = alloca i32, align 4
  %26 = alloca i32, align 4
  %27 = alloca i32, align 4
  %28 = alloca i32, align 4
  %29 = alloca <4 x i32>, align 16
  %30 = alloca i32, align 4
  %31 = alloca ptr, align 8
  %32 = alloca ptr, align 8
  %33 = alloca ptr, align 8
  %34 = alloca i32, align 4
  %35 = alloca i32, align 4
  %36 = alloca i32, align 4
  %37 = alloca i32, align 4
  %38 = alloca ptr, align 8
  %39 = alloca <2 x i64>, align 16
  %40 = alloca <2 x i64>, align 16
  %41 = alloca i32, align 4
  %42 = alloca ptr, align 8
  %43 = alloca <2 x i64>, align 16
  %44 = alloca <2 x i64>, align 16
  %45 = alloca <2 x i64>, align 16
  %46 = alloca <2 x i64>, align 16
  %47 = alloca i32, align 4
  %48 = alloca <2 x i64>, align 16
  %49 = alloca <2 x i64>, align 16
  %50 = alloca <2 x i64>, align 16
  %51 = alloca i32, align 4
  store ptr %0, ptr %33, align 8
  store i32 %1, ptr %34, align 4
  store i32 %2, ptr %35, align 4
  store i32 %3, ptr %36, align 4
  store i32 %4, ptr %37, align 4
  store ptr %5, ptr %38, align 8
  %52 = load i32, ptr %37, align 4
  %53 = trunc i32 %52 to i16
  %54 = zext i16 %53 to i32
  %55 = shl i32 %54, 8
  %56 = trunc i32 %55 to i16
  %57 = sext i16 %56 to i32
  %58 = ashr i32 %57, 5
  %59 = and i32 %58, 65535
  %60 = or i32 0, %59
  store i32 %60, ptr %24, align 4
  %61 = load i32, ptr %24, align 4
  %62 = load i32, ptr %24, align 4
  %63 = load i32, ptr %24, align 4
  %64 = load i32, ptr %24, align 4
  store i32 %61, ptr %19, align 4
  store i32 %62, ptr %20, align 4
  store i32 %63, ptr %21, align 4
  store i32 %64, ptr %22, align 4
  %65 = load i32, ptr %22, align 4
  %66 = insertelement <4 x i32> poison, i32 %65, i32 0
  %67 = load i32, ptr %21, align 4
  %68 = insertelement <4 x i32> %66, i32 %67, i32 1
  %69 = load i32, ptr %20, align 4
  %70 = insertelement <4 x i32> %68, i32 %69, i32 2
  %71 = load i32, ptr %19, align 4
  %72 = insertelement <4 x i32> %70, i32 %71, i32 3
  store <4 x i32> %72, ptr %23, align 16
  %73 = load <4 x i32>, ptr %23, align 16
  %74 = bitcast <4 x i32> %73 to <2 x i64>
  store <2 x i64> %74, ptr %39, align 16
  store i32 65280, ptr %30, align 4
  %75 = load i32, ptr %30, align 4
  %76 = load i32, ptr %30, align 4
  %77 = load i32, ptr %30, align 4
  %78 = load i32, ptr %30, align 4
  store i32 %75, ptr %25, align 4
  store i32 %76, ptr %26, align 4
  store i32 %77, ptr %27, align 4
  store i32 %78, ptr %28, align 4
  %79 = load i32, ptr %28, align 4
  %80 = insertelement <4 x i32> poison, i32 %79, i32 0
  %81 = load i32, ptr %27, align 4
  %82 = insertelement <4 x i32> %80, i32 %81, i32 1
  %83 = load i32, ptr %26, align 4
  %84 = insertelement <4 x i32> %82, i32 %83, i32 2
  %85 = load i32, ptr %25, align 4
  %86 = insertelement <4 x i32> %84, i32 %85, i32 3
  store <4 x i32> %86, ptr %29, align 16
  %87 = load <4 x i32>, ptr %29, align 16
  %88 = bitcast <4 x i32> %87 to <2 x i64>
  store <2 x i64> %88, ptr %40, align 16
  %89 = load i32, ptr %35, align 4
  %90 = icmp sge i32 %89, 4
  br i1 %90, label %91, label %240

91:                                               ; preds = %6
  store i32 0, ptr %41, align 4
  br label %92

92:                                               ; preds = %236, %91
  %93 = load i32, ptr %41, align 4
  %94 = load i32, ptr %36, align 4
  %95 = icmp slt i32 %93, %94
  br i1 %95, label %96, label %239

96:                                               ; preds = %92
  %97 = load ptr, ptr %33, align 8
  %98 = load i32, ptr %41, align 4
  %99 = load i32, ptr %34, align 4
  %100 = mul nsw i32 %98, %99
  %101 = sext i32 %100 to i64
  %102 = getelementptr inbounds i32, ptr %97, i64 %101
  store ptr %102, ptr %42, align 8
  %103 = load ptr, ptr %42, align 8
  store ptr %103, ptr %31, align 8
  %104 = load ptr, ptr %31, align 8
  %105 = load <2 x i64>, ptr %104, align 1
  store <2 x i64> %105, ptr %43, align 16
  %106 = load <2 x i64>, ptr %43, align 16
  %107 = load <2 x i64>, ptr %40, align 16
  store <2 x i64> %106, ptr %11, align 16
  store <2 x i64> %107, ptr %12, align 16
  %108 = load <2 x i64>, ptr %11, align 16
  %109 = load <2 x i64>, ptr %12, align 16
  %110 = and <2 x i64> %108, %109
  store <2 x i64> %110, ptr %44, align 16
  %111 = load <2 x i64>, ptr %44, align 16
  %112 = load <2 x i64>, ptr %39, align 16
  store <2 x i64> %111, ptr %7, align 16
  store <2 x i64> %112, ptr %8, align 16
  %113 = load <2 x i64>, ptr %7, align 16
  %114 = bitcast <2 x i64> %113 to <8 x i16>
  %115 = load <2 x i64>, ptr %8, align 16
  %116 = bitcast <2 x i64> %115 to <8 x i16>
  %117 = call <4 x i32> @llvm.x86.sse2.pmadd.wd(<8 x i16> %114, <8 x i16> %116)
  %118 = bitcast <4 x i32> %117 to <2 x i64>
  store <2 x i64> %118, ptr %45, align 16
  %119 = load <2 x i64>, ptr %43, align 16
  %120 = load <2 x i64>, ptr %45, align 16
  store <2 x i64> %119, ptr %15, align 16
  store <2 x i64> %120, ptr %16, align 16
  %121 = load <2 x i64>, ptr %15, align 16
  %122 = bitcast <2 x i64> %121 to <8 x i16>
  %123 = load <2 x i64>, ptr %16, align 16
  %124 = bitcast <2 x i64> %123 to <8 x i16>
  %125 = sub <8 x i16> %122, %124
  %126 = bitcast <8 x i16> %125 to <2 x i64>
  store <2 x i64> %126, ptr %46, align 16
  store i32 4, ptr %47, align 4
  br label %127

127:                                              ; preds = %196, %96
  %128 = load i32, ptr %47, align 4
  %129 = add nsw i32 %128, 4
  %130 = load i32, ptr %35, align 4
  %131 = icmp sle i32 %129, %130
  br i1 %131, label %132, label %199

132:                                              ; preds = %127
  %133 = load ptr, ptr %42, align 8
  %134 = load i32, ptr %47, align 4
  %135 = sext i32 %134 to i64
  %136 = getelementptr inbounds i32, ptr %133, i64 %135
  store ptr %136, ptr %32, align 8
  %137 = load ptr, ptr %32, align 8
  %138 = load <2 x i64>, ptr %137, align 1
  store <2 x i64> %138, ptr %48, align 16
  %139 = load ptr, ptr %38, align 8
  %140 = load <2 x i64>, ptr %46, align 16
  %141 = bitcast <2 x i64> %140 to <16 x i8>
  %142 = extractelement <16 x i8> %141, i64 2
  %143 = zext i8 %142 to i32
  %144 = sext i32 %143 to i64
  %145 = getelementptr inbounds i32, ptr %139, i64 %144
  %146 = load i32, ptr %145, align 4
  %147 = add i32 %146, 1
  store i32 %147, ptr %145, align 4
  %148 = load <2 x i64>, ptr %48, align 16
  %149 = load <2 x i64>, ptr %40, align 16
  store <2 x i64> %148, ptr %13, align 16
  store <2 x i64> %149, ptr %14, align 16
  %150 = load <2 x i64>, ptr %13, align 16
  %151 = load <2 x i64>, ptr %14, align 16
  %152 = and <2 x i64> %150, %151
  store <2 x i64> %152, ptr %49, align 16
  %153 = load ptr, ptr %38, align 8
  %154 = load <2 x i64>, ptr %46, align 16
  %155 = bitcast <2 x i64> %154 to <16 x i8>
  %156 = extractelement <16 x i8> %155, i64 6
  %157 = zext i8 %156 to i32
  %158 = sext i32 %157 to i64
  %159 = getelementptr inbounds i32, ptr %153, i64 %158
  %160 = load i32, ptr %159, align 4
  %161 = add i32 %160, 1
  store i32 %161, ptr %159, align 4
  %162 = load <2 x i64>, ptr %49, align 16
  %163 = load <2 x i64>, ptr %39, align 16
  store <2 x i64> %162, ptr %9, align 16
  store <2 x i64> %163, ptr %10, align 16
  %164 = load <2 x i64>, ptr %9, align 16
  %165 = bitcast <2 x i64> %164 to <8 x i16>
  %166 = load <2 x i64>, ptr %10, align 16
  %167 = bitcast <2 x i64> %166 to <8 x i16>
  %168 = call <4 x i32> @llvm.x86.sse2.pmadd.wd(<8 x i16> %165, <8 x i16> %167)
  %169 = bitcast <4 x i32> %168 to <2 x i64>
  store <2 x i64> %169, ptr %50, align 16
  %170 = load ptr, ptr %38, align 8
  %171 = load <2 x i64>, ptr %46, align 16
  %172 = bitcast <2 x i64> %171 to <16 x i8>
  %173 = extractelement <16 x i8> %172, i64 10
  %174 = zext i8 %173 to i32
  %175 = sext i32 %174 to i64
  %176 = getelementptr inbounds i32, ptr %170, i64 %175
  %177 = load i32, ptr %176, align 4
  %178 = add i32 %177, 1
  store i32 %178, ptr %176, align 4
  %179 = load ptr, ptr %38, align 8
  %180 = load <2 x i64>, ptr %46, align 16
  %181 = bitcast <2 x i64> %180 to <16 x i8>
  %182 = extractelement <16 x i8> %181, i64 14
  %183 = zext i8 %182 to i32
  %184 = sext i32 %183 to i64
  %185 = getelementptr inbounds i32, ptr %179, i64 %184
  %186 = load i32, ptr %185, align 4
  %187 = add i32 %186, 1
  store i32 %187, ptr %185, align 4
  %188 = load <2 x i64>, ptr %48, align 16
  %189 = load <2 x i64>, ptr %50, align 16
  store <2 x i64> %188, ptr %17, align 16
  store <2 x i64> %189, ptr %18, align 16
  %190 = load <2 x i64>, ptr %17, align 16
  %191 = bitcast <2 x i64> %190 to <8 x i16>
  %192 = load <2 x i64>, ptr %18, align 16
  %193 = bitcast <2 x i64> %192 to <8 x i16>
  %194 = sub <8 x i16> %191, %193
  %195 = bitcast <8 x i16> %194 to <2 x i64>
  store <2 x i64> %195, ptr %46, align 16
  br label %196

196:                                              ; preds = %132
  %197 = load i32, ptr %47, align 4
  %198 = add nsw i32 %197, 4
  store i32 %198, ptr %47, align 4
  br label %127, !llvm.loop !10

199:                                              ; preds = %127
  %200 = load ptr, ptr %38, align 8
  %201 = load <2 x i64>, ptr %46, align 16
  %202 = bitcast <2 x i64> %201 to <16 x i8>
  %203 = extractelement <16 x i8> %202, i64 2
  %204 = zext i8 %203 to i32
  %205 = sext i32 %204 to i64
  %206 = getelementptr inbounds i32, ptr %200, i64 %205
  %207 = load i32, ptr %206, align 4
  %208 = add i32 %207, 1
  store i32 %208, ptr %206, align 4
  %209 = load ptr, ptr %38, align 8
  %210 = load <2 x i64>, ptr %46, align 16
  %211 = bitcast <2 x i64> %210 to <16 x i8>
  %212 = extractelement <16 x i8> %211, i64 6
  %213 = zext i8 %212 to i32
  %214 = sext i32 %213 to i64
  %215 = getelementptr inbounds i32, ptr %209, i64 %214
  %216 = load i32, ptr %215, align 4
  %217 = add i32 %216, 1
  store i32 %217, ptr %215, align 4
  %218 = load ptr, ptr %38, align 8
  %219 = load <2 x i64>, ptr %46, align 16
  %220 = bitcast <2 x i64> %219 to <16 x i8>
  %221 = extractelement <16 x i8> %220, i64 10
  %222 = zext i8 %221 to i32
  %223 = sext i32 %222 to i64
  %224 = getelementptr inbounds i32, ptr %218, i64 %223
  %225 = load i32, ptr %224, align 4
  %226 = add i32 %225, 1
  store i32 %226, ptr %224, align 4
  %227 = load ptr, ptr %38, align 8
  %228 = load <2 x i64>, ptr %46, align 16
  %229 = bitcast <2 x i64> %228 to <16 x i8>
  %230 = extractelement <16 x i8> %229, i64 14
  %231 = zext i8 %230 to i32
  %232 = sext i32 %231 to i64
  %233 = getelementptr inbounds i32, ptr %227, i64 %232
  %234 = load i32, ptr %233, align 4
  %235 = add i32 %234, 1
  store i32 %235, ptr %233, align 4
  br label %236

236:                                              ; preds = %199
  %237 = load i32, ptr %41, align 4
  %238 = add nsw i32 %237, 1
  store i32 %238, ptr %41, align 4
  br label %92, !llvm.loop !11

239:                                              ; preds = %92
  br label %240

240:                                              ; preds = %239, %6
  %241 = load i32, ptr %35, align 4
  %242 = and i32 %241, 3
  store i32 %242, ptr %51, align 4
  %243 = load i32, ptr %51, align 4
  %244 = icmp sgt i32 %243, 0
  br i1 %244, label %245, label %259

245:                                              ; preds = %240
  %246 = load ptr, ptr %33, align 8
  %247 = load i32, ptr %35, align 4
  %248 = sext i32 %247 to i64
  %249 = getelementptr inbounds i32, ptr %246, i64 %248
  %250 = load i32, ptr %51, align 4
  %251 = sext i32 %250 to i64
  %252 = sub i64 0, %251
  %253 = getelementptr inbounds i32, ptr %249, i64 %252
  %254 = load i32, ptr %34, align 4
  %255 = load i32, ptr %51, align 4
  %256 = load i32, ptr %36, align 4
  %257 = load i32, ptr %37, align 4
  %258 = load ptr, ptr %38, align 8
  call void @VP8LCollectColorRedTransforms_C(ptr noundef %253, i32 noundef %254, i32 noundef %255, i32 noundef %256, i32 noundef %257, ptr noundef %258)
  br label %259

259:                                              ; preds = %245, %240
  ret void
}