; Function Attrs: nounwind uwtable
define internal void @CollectColorRedTransforms_SSE41(ptr noundef %0, i32 noundef %1, i32 noundef %2, i32 noundef %3, i32 noundef %4, ptr noundef %5) #2 {
  %7 = icmp sgt i32 %2, 3
  %8 = icmp sgt i32 %3, 0
  %or.cond = and i1 %7, %8
  br i1 %or.cond, label %.lr.ph93, label %.loopexit

.lr.ph93:                                         ; preds = %6
  %.tr = trunc i32 %4 to i16
  %9 = shl i16 %.tr, 8
  %10 = ashr exact i16 %9, 5
  %11 = zext i16 %10 to i32
  %12 = insertelement <4 x i32> poison, i32 %11, i64 0
  %13 = bitcast <4 x i32> %12 to <8 x i16>
  %14 = shufflevector <8 x i16> %13, <8 x i16> poison, <8 x i32> <i32 0, i32 1, i32 0, i32 1, i32 0, i32 1, i32 0, i32 1>
  %.not8889 = icmp ult i32 %2, 8
  br i1 %.not8889, label %.lr.ph93.split.us.preheader, label %.lr.ph.preheader

.lr.ph.preheader:                                 ; preds = %.lr.ph93
  %15 = zext nneg i32 %2 to i64
  %16 = sext i32 %1 to i64
  %wide.trip.count = zext nneg i32 %3 to i64
  br label %.lr.ph

.lr.ph93.split.us.preheader:                      ; preds = %.lr.ph93
  %17 = sext i32 %1 to i64
  %wide.trip.count106 = zext nneg i32 %3 to i64
  br label %.lr.ph93.split.us

.lr.ph93.split.us:                                ; preds = %.lr.ph93.split.us.preheader, %.lr.ph93.split.us
  %indvars.iv103 = phi i64 [ 0, %.lr.ph93.split.us.preheader ], [ %indvars.iv.next104, %.lr.ph93.split.us ]
  %18 = mul nsw i64 %indvars.iv103, %17
  %19 = getelementptr inbounds i32, ptr %0, i64 %18
  %20 = load <8 x i16>, ptr %19, align 1
  %21 = and <8 x i16> %20, <i16 -256, i16 0, i16 -256, i16 0, i16 -256, i16 0, i16 -256, i16 0>
  %22 = tail call <4 x i32> @llvm.x86.sse2.pmadd.wd(<8 x i16> %21, <8 x i16> %14)
  %23 = bitcast <4 x i32> %22 to <8 x i16>
  %24 = sub <8 x i16> %20, %23
  %25 = bitcast <8 x i16> %24 to <16 x i8>
  %26 = extractelement <16 x i8> %25, i64 2
  %27 = zext i8 %26 to i64
  %28 = getelementptr inbounds i32, ptr %5, i64 %27
  %29 = load i32, ptr %28, align 4
  %30 = add i32 %29, 1
  store i32 %30, ptr %28, align 4
  %31 = extractelement <16 x i8> %25, i64 6
  %32 = zext i8 %31 to i64
  %33 = getelementptr inbounds i32, ptr %5, i64 %32
  %34 = load i32, ptr %33, align 4
  %35 = add i32 %34, 1
  store i32 %35, ptr %33, align 4
  %36 = extractelement <16 x i8> %25, i64 10
  %37 = zext i8 %36 to i64
  %38 = getelementptr inbounds i32, ptr %5, i64 %37
  %39 = load i32, ptr %38, align 4
  %40 = add i32 %39, 1
  store i32 %40, ptr %38, align 4
  %41 = extractelement <16 x i8> %25, i64 14
  %42 = zext i8 %41 to i64
  %43 = getelementptr inbounds i32, ptr %5, i64 %42
  %44 = load i32, ptr %43, align 4
  %45 = add i32 %44, 1
  store i32 %45, ptr %43, align 4
  %indvars.iv.next104 = add nuw nsw i64 %indvars.iv103, 1
  %exitcond107.not = icmp eq i64 %indvars.iv.next104, %wide.trip.count106
  br i1 %exitcond107.not, label %.loopexit, label %.lr.ph93.split.us, !llvm.loop !10

.lr.ph:                                           ; preds = %.lr.ph.preheader, %._crit_edge
  %indvars.iv100 = phi i64 [ 0, %.lr.ph.preheader ], [ %indvars.iv.next101, %._crit_edge ]
  %46 = mul nsw i64 %indvars.iv100, %16
  %47 = getelementptr inbounds i32, ptr %0, i64 %46
  %48 = load <8 x i16>, ptr %47, align 1
  %49 = and <8 x i16> %48, <i16 -256, i16 0, i16 -256, i16 0, i16 -256, i16 0, i16 -256, i16 0>
  %50 = tail call <4 x i32> @llvm.x86.sse2.pmadd.wd(<8 x i16> %49, <8 x i16> %14)
  %51 = bitcast <4 x i32> %50 to <8 x i16>
  %52 = sub <8 x i16> %48, %51
  br label %53

53:                                               ; preds = %.lr.ph, %53
  %indvars.iv95 = phi i64 [ 4, %.lr.ph ], [ %indvars.iv.next96, %53 ]
  %indvars.iv = phi i64 [ 8, %.lr.ph ], [ %indvars.iv.next, %53 ]
  %.083.in91 = phi <8 x i16> [ %52, %.lr.ph ], [ %80, %53 ]
  %54 = getelementptr inbounds i32, ptr %47, i64 %indvars.iv95
  %55 = load <8 x i16>, ptr %54, align 1
  %56 = bitcast <8 x i16> %.083.in91 to <16 x i8>
  %57 = extractelement <16 x i8> %56, i64 2
  %58 = zext i8 %57 to i64
  %59 = getelementptr inbounds i32, ptr %5, i64 %58
  %60 = load i32, ptr %59, align 4
  %61 = add i32 %60, 1
  store i32 %61, ptr %59, align 4
  %62 = extractelement <16 x i8> %56, i64 6
  %63 = zext i8 %62 to i64
  %64 = getelementptr inbounds i32, ptr %5, i64 %63
  %65 = load i32, ptr %64, align 4
  %66 = add i32 %65, 1
  store i32 %66, ptr %64, align 4
  %67 = and <8 x i16> %55, <i16 -256, i16 0, i16 -256, i16 0, i16 -256, i16 0, i16 -256, i16 0>
  %68 = tail call <4 x i32> @llvm.x86.sse2.pmadd.wd(<8 x i16> %67, <8 x i16> %14)
  %69 = extractelement <16 x i8> %56, i64 10
  %70 = zext i8 %69 to i64
  %71 = getelementptr inbounds i32, ptr %5, i64 %70
  %72 = load i32, ptr %71, align 4
  %73 = add i32 %72, 1
  store i32 %73, ptr %71, align 4
  %74 = extractelement <16 x i8> %56, i64 14
  %75 = zext i8 %74 to i64
  %76 = getelementptr inbounds i32, ptr %5, i64 %75
  %77 = load i32, ptr %76, align 4
  %78 = add i32 %77, 1
  store i32 %78, ptr %76, align 4
  %79 = bitcast <4 x i32> %68 to <8 x i16>
  %80 = sub <8 x i16> %55, %79
  %indvars.iv.next = add nuw nsw i64 %indvars.iv, 4
  %.not88 = icmp ugt i64 %indvars.iv.next, %15
  %indvars.iv.next96 = add nuw nsw i64 %indvars.iv95, 4
  br i1 %.not88, label %._crit_edge, label %53, !llvm.loop !11

._crit_edge:                                      ; preds = %53
  %81 = bitcast <8 x i16> %80 to <16 x i8>
  %82 = extractelement <16 x i8> %81, i64 2
  %83 = zext i8 %82 to i64
  %84 = getelementptr inbounds i32, ptr %5, i64 %83
  %85 = load i32, ptr %84, align 4
  %86 = add i32 %85, 1
  store i32 %86, ptr %84, align 4
  %87 = extractelement <16 x i8> %81, i64 6
  %88 = zext i8 %87 to i64
  %89 = getelementptr inbounds i32, ptr %5, i64 %88
  %90 = load i32, ptr %89, align 4
  %91 = add i32 %90, 1
  store i32 %91, ptr %89, align 4
  %92 = extractelement <16 x i8> %81, i64 10
  %93 = zext i8 %92 to i64
  %94 = getelementptr inbounds i32, ptr %5, i64 %93
  %95 = load i32, ptr %94, align 4
  %96 = add i32 %95, 1
  store i32 %96, ptr %94, align 4
  %97 = extractelement <16 x i8> %81, i64 14
  %98 = zext i8 %97 to i64
  %99 = getelementptr inbounds i32, ptr %5, i64 %98
  %100 = load i32, ptr %99, align 4
  %101 = add i32 %100, 1
  store i32 %101, ptr %99, align 4
  %indvars.iv.next101 = add nuw nsw i64 %indvars.iv100, 1
  %exitcond.not = icmp eq i64 %indvars.iv.next101, %wide.trip.count
  br i1 %exitcond.not, label %.loopexit, label %.lr.ph, !llvm.loop !10

.loopexit:                                        ; preds = %._crit_edge, %.lr.ph93.split.us, %6
  %102 = and i32 %2, 3
  %.not = icmp eq i32 %102, 0
  br i1 %.not, label %109, label %103

103:                                              ; preds = %.loopexit
  %104 = sext i32 %2 to i64
  %105 = getelementptr inbounds i32, ptr %0, i64 %104
  %106 = zext nneg i32 %102 to i64
  %107 = sub nsw i64 0, %106
  %108 = getelementptr inbounds i32, ptr %105, i64 %107
  tail call void @VP8LCollectColorRedTransforms_C(ptr noundef nonnull %108, i32 noundef %1, i32 noundef %102, i32 noundef %3, i32 noundef %4, ptr noundef %5) #5
  br label %109

109:                                              ; preds = %103, %.loopexit
  ret void
}